target datalayout = "e-m:e-p270:32:32-p271:32:32-p272:64:64-i64:64-i128:128-f80:128-n8:16:32:64-S128"
target triple = "x86_64-pc-linux-gnu"

@.str.14 = private unnamed_addr constant [40 x i8] c"../openssl/test/endecoder_legacy_test.c\00", align 1
@.str.55 = private unnamed_addr constant [37 x i8] c"membio_legacy = BIO_new(BIO_s_mem())\00", align 1
@.str.56 = private unnamed_addr constant [39 x i8] c"membio_provided = BIO_new(BIO_s_mem())\00", align 1
@.str.57 = private unnamed_addr constant [87 x i8] c"ectx = OSSL_ENCODER_CTX_new_for_pkey(provided_pkey, selection, \22PEM\22, structure, NULL)\00", align 1
@.str.58 = private unnamed_addr constant [4 x i8] c"PEM\00", align 1
@.str.59 = private unnamed_addr constant [43 x i8] c"OSSL_ENCODER_to_bio(ectx, membio_provided)\00", align 1
@.str.61 = private unnamed_addr constant [37 x i8] c"decoded_legacy_pkey = EVP_PKEY_new()\00", align 1
@.str.62 = private unnamed_addr constant [111 x i8] c"dctx = OSSL_DECODER_CTX_new_for_pkey(&decoded_provided_pkey, \22PEM\22, structure, keytype, selection, NULL, NULL)\00", align 1
@.str.63 = private unnamed_addr constant [45 x i8] c"OSSL_DECODER_from_bio(dctx, membio_provided)\00", align 1
@.str.64 = private unnamed_addr constant [67 x i8] c"decoded_legacy_key = pem_read_bio(membio_legacy, NULL, NULL, NULL)\00", align 1
@.str.65 = private unnamed_addr constant [67 x i8] c"EVP_PKEY_assign(decoded_legacy_pkey, evp_type, decoded_legacy_key)\00", align 1
@.str.66 = private unnamed_addr constant [56 x i8] c"evp_pkey_eq(decoded_provided_pkey, decoded_legacy_pkey)\00", align 1
@.str.67 = private unnamed_addr constant [2 x i8] c"0\00", align 1
@.str.68 = private unnamed_addr constant [23 x i8] c"decoded_provided_pkey:\00", align 1
@bio_out = external global ptr, align 8
@.str.69 = private unnamed_addr constant [21 x i8] c"decoded_legacy_pkey:\00", align 1
@.str.74 = private unnamed_addr constant [41 x i8] c"pem_write_bio(membio_legacy, legacy_key)\00", align 1

; Function Attrs: nounwind uwtable
define internal i32 @test_unprotected_PEM(ptr noundef %0, i32 noundef %1, ptr noundef %2, ptr noundef %3, ptr noundef %4, ptr noundef %5, ptr noundef %6, ptr noundef %7, i32 noundef %8, ptr noundef %9) #0 {
  %11 = alloca ptr, align 8
  %12 = alloca i32, align 4
  %13 = alloca ptr, align 8
  %14 = alloca ptr, align 8
  %15 = alloca ptr, align 8
  %16 = alloca ptr, align 8
  %17 = alloca ptr, align 8
  %18 = alloca ptr, align 8
  %19 = alloca i32, align 4
  %20 = alloca ptr, align 8
  %21 = alloca i32, align 4
  %22 = alloca ptr, align 8
  %23 = alloca ptr, align 8
  %24 = alloca ptr, align 8
  %25 = alloca ptr, align 8
  %26 = alloca ptr, align 8
  %27 = alloca ptr, align 8
  %28 = alloca ptr, align 8
  store ptr %0, ptr %11, align 8, !tbaa !19
  store i32 %1, ptr %12, align 4, !tbaa !26
  store ptr %2, ptr %13, align 8, !tbaa !31
  store ptr %3, ptr %14, align 8, !tbaa !31
  store ptr %4, ptr %15, align 8, !tbaa !31
  store ptr %5, ptr %16, align 8, !tbaa !31
  store ptr %6, ptr %17, align 8, !tbaa !31
  store ptr %7, ptr %18, align 8, !tbaa !21
  store i32 %8, ptr %19, align 4, !tbaa !26
  store ptr %9, ptr %20, align 8, !tbaa !19
  call void @llvm.lifetime.start.p0(i64 4, ptr %21) #4
  store i32 0, ptr %21, align 4, !tbaa !26
  call void @llvm.lifetime.start.p0(i64 8, ptr %22) #4
  store ptr null, ptr %22, align 8, !tbaa !59
  call void @llvm.lifetime.start.p0(i64 8, ptr %23) #4
  store ptr null, ptr %23, align 8, !tbaa !59
  call void @llvm.lifetime.start.p0(i64 8, ptr %24) #4
  store ptr null, ptr %24, align 8, !tbaa !61
  call void @llvm.lifetime.start.p0(i64 8, ptr %25) #4
  store ptr null, ptr %25, align 8, !tbaa !63
  call void @llvm.lifetime.start.p0(i64 8, ptr %26) #4
  store ptr null, ptr %26, align 8, !tbaa !31
  call void @llvm.lifetime.start.p0(i64 8, ptr %27) #4
  store ptr null, ptr %27, align 8, !tbaa !21
  call void @llvm.lifetime.start.p0(i64 8, ptr %28) #4
  store ptr null, ptr %28, align 8, !tbaa !21
  %29 = call ptr @BIO_s_mem()
  %30 = call ptr @BIO_new(ptr noundef %29)
  store ptr %30, ptr %22, align 8, !tbaa !59
  %31 = call i32 @test_ptr(ptr noundef @.str.14, i32 noundef 385, ptr noundef @.str.55, ptr noundef %30)
  %32 = icmp ne i32 %31, 0
  br i1 %32, label %33, label %38

33:                                               ; preds = %10
  %34 = call ptr @BIO_s_mem()
  %35 = call ptr @BIO_new(ptr noundef %34)
  store ptr %35, ptr %23, align 8, !tbaa !59
  %36 = call i32 @test_ptr(ptr noundef @.str.14, i32 noundef 386, ptr noundef @.str.56, ptr noundef %35)
  %37 = icmp ne i32 %36, 0
  br i1 %37, label %39, label %38

38:                                               ; preds = %33, %10
  br label %125

39:                                               ; preds = %33
  %40 = load ptr, ptr %18, align 8, !tbaa !21
  %41 = load i32, ptr %19, align 4, !tbaa !26
  %42 = load ptr, ptr %20, align 8, !tbaa !19
  %43 = call ptr @OSSL_ENCODER_CTX_new_for_pkey(ptr noundef %40, i32 noundef %41, ptr noundef @.str.58, ptr noundef %42, ptr noundef null)
  store ptr %43, ptr %24, align 8, !tbaa !61
  %44 = call i32 @test_ptr(ptr noundef @.str.14, i32 noundef 392, ptr noundef @.str.57, ptr noundef %43)
  %45 = icmp ne i32 %44, 0
  br i1 %45, label %46, label %68

46:                                               ; preds = %39
  %47 = load ptr, ptr %24, align 8, !tbaa !61
  %48 = load ptr, ptr %23, align 8, !tbaa !59
  %49 = call i32 @OSSL_ENCODER_to_bio(ptr noundef %47, ptr noundef %48)
  %50 = icmp ne i32 %49, 0
  %51 = zext i1 %50 to i32
  %52 = call i32 @test_true(ptr noundef @.str.14, i32 noundef 393, ptr noundef @.str.59, i32 noundef %51)
  %53 = icmp ne i32 %52, 0
  br i1 %53, label %54, label %68

54:                                               ; preds = %46
  %55 = load ptr, ptr %14, align 8, !tbaa !31
  %56 = load ptr, ptr %22, align 8, !tbaa !59
  %57 = load ptr, ptr %13, align 8, !tbaa !31
  %58 = call i32 %55(ptr noundef %56, ptr noundef %57)
  %59 = icmp ne i32 %58, 0
  %60 = zext i1 %59 to i32
  %61 = call i32 @test_true(ptr noundef @.str.14, i32 noundef 394, ptr noundef @.str.74, i32 noundef %60)
  %62 = icmp ne i32 %61, 0
  br i1 %62, label %63, label %68

63:                                               ; preds = %54
  %64 = load ptr, ptr %23, align 8, !tbaa !59
  %65 = load ptr, ptr %22, align 8, !tbaa !59
  %66 = call i32 @test_membio_str_eq(ptr noundef %64, ptr noundef %65)
  %67 = icmp ne i32 %66, 0
  br i1 %67, label %69, label %68

68:                                               ; preds = %63, %54, %46, %39
  br label %125

69:                                               ; preds = %63
  %70 = load ptr, ptr %15, align 8, !tbaa !31
  %71 = icmp ne ptr %70, null
  br i1 %71, label %72, label %124

72:                                               ; preds = %69
  %73 = call ptr @EVP_PKEY_new()
  store ptr %73, ptr %27, align 8, !tbaa !21
  %74 = call i32 @test_ptr(ptr noundef @.str.14, i32 noundef 401, ptr noundef @.str.61, ptr noundef %73)
  %75 = icmp ne i32 %74, 0
  br i1 %75, label %76, label %106

76:                                               ; preds = %72
  %77 = load ptr, ptr %20, align 8, !tbaa !19
  %78 = load ptr, ptr %11, align 8, !tbaa !19
  %79 = load i32, ptr %19, align 4, !tbaa !26
  %80 = call ptr @OSSL_DECODER_CTX_new_for_pkey(ptr noundef %28, ptr noundef @.str.58, ptr noundef %77, ptr noundef %78, i32 noundef %79, ptr noundef null, ptr noundef null)
  store ptr %80, ptr %25, align 8, !tbaa !63
  %81 = call i32 @test_ptr(ptr noundef @.str.14, i32 noundef 406, ptr noundef @.str.62, ptr noundef %80)
  %82 = icmp ne i32 %81, 0
  br i1 %82, label %83, label %106

83:                                               ; preds = %76
  %84 = load ptr, ptr %25, align 8, !tbaa !63
  %85 = load ptr, ptr %23, align 8, !tbaa !59
  %86 = call i32 @OSSL_DECODER_from_bio(ptr noundef %84, ptr noundef %85)
  %87 = icmp ne i32 %86, 0
  %88 = zext i1 %87 to i32
  %89 = call i32 @test_true(ptr noundef @.str.14, i32 noundef 407, ptr noundef @.str.63, i32 noundef %88)
  %90 = icmp ne i32 %89, 0
  br i1 %90, label %91, label %106

91:                                               ; preds = %83
  %92 = load ptr, ptr %15, align 8, !tbaa !31
  %93 = load ptr, ptr %22, align 8, !tbaa !59
  %94 = call ptr %92(ptr noundef %93, ptr noundef null, ptr noundef null, ptr noundef null)
  store ptr %94, ptr %26, align 8, !tbaa !31
  %95 = call i32 @test_ptr(ptr noundef @.str.14, i32 noundef 409, ptr noundef @.str.64, ptr noundef %94)
  %96 = icmp ne i32 %95, 0
  br i1 %96, label %97, label %106

97:                                               ; preds = %91
  %98 = load ptr, ptr %27, align 8, !tbaa !21
  %99 = load i32, ptr %12, align 4, !tbaa !26
  %100 = load ptr, ptr %26, align 8, !tbaa !31
  %101 = call i32 @EVP_PKEY_assign(ptr noundef %98, i32 noundef %99, ptr noundef %100)
  %102 = icmp ne i32 %101, 0
  %103 = zext i1 %102 to i32
  %104 = call i32 @test_true(ptr noundef @.str.14, i32 noundef 411, ptr noundef @.str.65, i32 noundef %103)
  %105 = icmp ne i32 %104, 0
  br i1 %105, label %107, label %106

106:                                              ; preds = %97, %91, %83, %76, %72
  br label %125

107:                                              ; preds = %97
  %108 = load ptr, ptr %16, align 8, !tbaa !31
  %109 = load ptr, ptr %28, align 8, !tbaa !21
  %110 = load ptr, ptr %27, align 8, !tbaa !21
  %111 = call i32 %108(ptr noundef %109, ptr noundef %110)
  %112 = call i32 @test_int_gt(ptr noundef @.str.14, i32 noundef 415, ptr noundef @.str.66, ptr noundef @.str.67, i32 noundef %111, i32 noundef 0)
  %113 = icmp ne i32 %112, 0
  br i1 %113, label %123, label %114

114:                                              ; preds = %107
  call void (ptr, i32, ptr, ...) @test_info(ptr noundef @.str.14, i32 noundef 416, ptr noundef @.str.68)
  %115 = load ptr, ptr %17, align 8, !tbaa !31
  %116 = load ptr, ptr @bio_out, align 8, !tbaa !59
  %117 = load ptr, ptr %28, align 8, !tbaa !21
  %118 = call i32 %115(ptr noundef %116, ptr noundef %117, i32 noundef 0, ptr noundef null)
  call void (ptr, i32, ptr, ...) @test_info(ptr noundef @.str.14, i32 noundef 418, ptr noundef @.str.69)
  %119 = load ptr, ptr %17, align 8, !tbaa !31
  %120 = load ptr, ptr @bio_out, align 8, !tbaa !59
  %121 = load ptr, ptr %27, align 8, !tbaa !21
  %122 = call i32 %119(ptr noundef %120, ptr noundef %121, i32 noundef 0, ptr noundef null)
  br label %123

123:                                              ; preds = %114, %107
  br label %124

124:                                              ; preds = %123, %69
  store i32 1, ptr %21, align 4, !tbaa !26
  br label %125

125:                                              ; preds = %124, %106, %68, %38
  %126 = load ptr, ptr %27, align 8, !tbaa !21
  call void @EVP_PKEY_free(ptr noundef %126)
  %127 = load ptr, ptr %28, align 8, !tbaa !21
  call void @EVP_PKEY_free(ptr noundef %127)
  %128 = load ptr, ptr %24, align 8, !tbaa !61
  call void @OSSL_ENCODER_CTX_free(ptr noundef %128)
  %129 = load ptr, ptr %25, align 8, !tbaa !63
  call void @OSSL_DECODER_CTX_free(ptr noundef %129)
  %130 = load ptr, ptr %23, align 8, !tbaa !59
  %131 = call i32 @BIO_free(ptr noundef %130)
  %132 = load ptr, ptr %22, align 8, !tbaa !59
  %133 = call i32 @BIO_free(ptr noundef %132)
  %134 = load i32, ptr %21, align 4, !tbaa !26
  call void @llvm.lifetime.end.p0(i64 8, ptr %28) #4
  call void @llvm.lifetime.end.p0(i64 8, ptr %27) #4
  call void @llvm.lifetime.end.p0(i64 8, ptr %26) #4
  call void @llvm.lifetime.end.p0(i64 8, ptr %25) #4
  call void @llvm.lifetime.end.p0(i64 8, ptr %24) #4
  call void @llvm.lifetime.end.p0(i64 8, ptr %23) #4
  call void @llvm.lifetime.end.p0(i64 8, ptr %22) #4
  call void @llvm.lifetime.end.p0(i64 4, ptr %21) #4
  ret i32 %134
}