; Function Attrs: nounwind uwtable
define internal fastcc range(i32 0, 2) i32 @test_unprotected_PEM(ptr noundef %0, i32 noundef %1, ptr noundef %2, ptr noundef readonly captures(none) %3, ptr noundef readonly captures(address_is_null) %4, ptr noundef readonly captures(none) %5, ptr noundef readonly captures(none) %6, ptr noundef %7, i32 noundef range(i32 132, 135) %8, ptr noundef %9) unnamed_addr #1 {
  %11 = alloca ptr, align 8
  call void @llvm.lifetime.start.p0(i64 8, ptr nonnull %11) #5
  store ptr null, ptr %11, align 8, !tbaa !15
  %12 = tail call ptr @BIO_s_mem() #5
  %13 = tail call ptr @BIO_new(ptr noundef %12) #5
  %14 = tail call i32 @test_ptr(ptr noundef nonnull @.str.14, i32 noundef 385, ptr noundef nonnull @.str.55, ptr noundef %13) #5
  %.not = icmp eq i32 %14, 0
  br i1 %.not, label %64, label %15

15:                                               ; preds = %10
  %16 = tail call ptr @BIO_s_mem() #5
  %17 = tail call ptr @BIO_new(ptr noundef %16) #5
  %18 = tail call i32 @test_ptr(ptr noundef nonnull @.str.14, i32 noundef 386, ptr noundef nonnull @.str.56, ptr noundef %17) #5
  %.not37 = icmp eq i32 %18, 0
  br i1 %.not37, label %64, label %19

19:                                               ; preds = %15
  %20 = tail call ptr @OSSL_ENCODER_CTX_new_for_pkey(ptr noundef %7, i32 noundef %8, ptr noundef nonnull @.str.58, ptr noundef %9, ptr noundef null) #5
  %21 = tail call i32 @test_ptr(ptr noundef nonnull @.str.14, i32 noundef 392, ptr noundef nonnull @.str.57, ptr noundef %20) #5
  %.not38 = icmp eq i32 %21, 0
  br i1 %.not38, label %64, label %22

22:                                               ; preds = %19
  %23 = tail call i32 @OSSL_ENCODER_to_bio(ptr noundef %20, ptr noundef %17) #5
  %24 = icmp ne i32 %23, 0
  %25 = zext i1 %24 to i32
  %26 = tail call i32 @test_true(ptr noundef nonnull @.str.14, i32 noundef 393, ptr noundef nonnull @.str.59, i32 noundef %25) #5
  %.not39 = icmp eq i32 %26, 0
  br i1 %.not39, label %64, label %27

27:                                               ; preds = %22
  %28 = tail call i32 %3(ptr noundef %13, ptr noundef %2) #5
  %29 = icmp ne i32 %28, 0
  %30 = zext i1 %29 to i32
  %31 = tail call i32 @test_true(ptr noundef nonnull @.str.14, i32 noundef 394, ptr noundef nonnull @.str.74, i32 noundef %30) #5
  %.not40 = icmp eq i32 %31, 0
  br i1 %.not40, label %64, label %32

32:                                               ; preds = %27
  %33 = tail call fastcc i32 @test_membio_str_eq(ptr noundef %17, ptr noundef %13)
  %.not41 = icmp eq i32 %33, 0
  br i1 %.not41, label %64, label %34

34:                                               ; preds = %32
  %.not42 = icmp eq ptr %4, null
  br i1 %.not42, label %64, label %35

35:                                               ; preds = %34
  %36 = tail call ptr @EVP_PKEY_new() #5
  %37 = tail call i32 @test_ptr(ptr noundef nonnull @.str.14, i32 noundef 401, ptr noundef nonnull @.str.61, ptr noundef %36) #5
  %.not43 = icmp eq i32 %37, 0
  br i1 %.not43, label %64, label %38

38:                                               ; preds = %35
  %39 = call ptr @OSSL_DECODER_CTX_new_for_pkey(ptr noundef nonnull %11, ptr noundef nonnull @.str.58, ptr noundef %9, ptr noundef %0, i32 noundef %8, ptr noundef null, ptr noundef null) #5
  %40 = call i32 @test_ptr(ptr noundef nonnull @.str.14, i32 noundef 406, ptr noundef nonnull @.str.62, ptr noundef %39) #5
  %.not44 = icmp eq i32 %40, 0
  br i1 %.not44, label %64, label %41

41:                                               ; preds = %38
  %42 = call i32 @OSSL_DECODER_from_bio(ptr noundef %39, ptr noundef %17) #5
  %43 = icmp ne i32 %42, 0
  %44 = zext i1 %43 to i32
  %45 = call i32 @test_true(ptr noundef nonnull @.str.14, i32 noundef 407, ptr noundef nonnull @.str.63, i32 noundef %44) #5
  %.not45 = icmp eq i32 %45, 0
  br i1 %.not45, label %64, label %46

46:                                               ; preds = %41
  %47 = call ptr %4(ptr noundef %13, ptr noundef null, ptr noundef null, ptr noundef null) #5
  %48 = call i32 @test_ptr(ptr noundef nonnull @.str.14, i32 noundef 409, ptr noundef nonnull @.str.64, ptr noundef %47) #5
  %.not46 = icmp eq i32 %48, 0
  br i1 %.not46, label %64, label %49

49:                                               ; preds = %46
  %50 = call i32 @EVP_PKEY_assign(ptr noundef %36, i32 noundef %1, ptr noundef %47) #5
  %51 = icmp ne i32 %50, 0
  %52 = zext i1 %51 to i32
  %53 = call i32 @test_true(ptr noundef nonnull @.str.14, i32 noundef 411, ptr noundef nonnull @.str.65, i32 noundef %52) #5
  %.not47 = icmp eq i32 %53, 0
  br i1 %.not47, label %64, label %54

54:                                               ; preds = %49
  %55 = load ptr, ptr %11, align 8, !tbaa !15
  %56 = call i32 %5(ptr noundef %55, ptr noundef %36) #5, !callees !51
  %57 = call i32 @test_int_gt(ptr noundef nonnull @.str.14, i32 noundef 415, ptr noundef nonnull @.str.66, ptr noundef nonnull @.str.67, i32 noundef %56, i32 noundef 0) #5
  %.not48 = icmp eq i32 %57, 0
  br i1 %.not48, label %58, label %64

58:                                               ; preds = %54
  call void (ptr, i32, ptr, ...) @test_info(ptr noundef nonnull @.str.14, i32 noundef 416, ptr noundef nonnull @.str.68) #5
  %59 = load ptr, ptr @bio_out, align 8, !tbaa !28
  %60 = load ptr, ptr %11, align 8, !tbaa !15
  %61 = call i32 %6(ptr noundef %59, ptr noundef %60, i32 noundef 0, ptr noundef null) #5, !callees !52
  call void (ptr, i32, ptr, ...) @test_info(ptr noundef nonnull @.str.14, i32 noundef 418, ptr noundef nonnull @.str.69) #5
  %62 = load ptr, ptr @bio_out, align 8, !tbaa !28
  %63 = call i32 %6(ptr noundef %62, ptr noundef %36, i32 noundef 0, ptr noundef null) #5, !callees !52
  br label %64

64:                                               ; preds = %34, %58, %54, %35, %38, %41, %46, %49, %19, %22, %27, %32, %10, %15
  %.035 = phi i32 [ 0, %49 ], [ 0, %46 ], [ 0, %41 ], [ 0, %38 ], [ 0, %35 ], [ 0, %32 ], [ 0, %27 ], [ 0, %22 ], [ 0, %19 ], [ 0, %15 ], [ 0, %10 ], [ 1, %54 ], [ 1, %58 ], [ 1, %34 ]
  %.034 = phi ptr [ %17, %49 ], [ %17, %46 ], [ %17, %41 ], [ %17, %38 ], [ %17, %35 ], [ %17, %32 ], [ %17, %27 ], [ %17, %22 ], [ %17, %19 ], [ %17, %15 ], [ null, %10 ], [ %17, %54 ], [ %17, %58 ], [ %17, %34 ]
  %.033 = phi ptr [ %20, %49 ], [ %20, %46 ], [ %20, %41 ], [ %20, %38 ], [ %20, %35 ], [ %20, %32 ], [ %20, %27 ], [ %20, %22 ], [ %20, %19 ], [ null, %15 ], [ null, %10 ], [ %20, %54 ], [ %20, %58 ], [ %20, %34 ]
  %.031 = phi ptr [ %39, %49 ], [ %39, %46 ], [ %39, %41 ], [ %39, %38 ], [ null, %35 ], [ null, %32 ], [ null, %27 ], [ null, %22 ], [ null, %19 ], [ null, %15 ], [ null, %10 ], [ %39, %54 ], [ %39, %58 ], [ null, %34 ]
  %.0 = phi ptr [ %36, %49 ], [ %36, %46 ], [ %36, %41 ], [ %36, %38 ], [ %36, %35 ], [ null, %32 ], [ null, %27 ], [ null, %22 ], [ null, %19 ], [ null, %15 ], [ null, %10 ], [ %36, %54 ], [ %36, %58 ], [ null, %34 ]
  call void @EVP_PKEY_free(ptr noundef %.0) #5
  %65 = load ptr, ptr %11, align 8, !tbaa !15
  call void @EVP_PKEY_free(ptr noundef %65) #5
  call void @OSSL_ENCODER_CTX_free(ptr noundef %.033) #5
  call void @OSSL_DECODER_CTX_free(ptr noundef %.031) #5
  %66 = call i32 @BIO_free(ptr noundef %.034) #5
  %67 = call i32 @BIO_free(ptr noundef %13) #5
  call void @llvm.lifetime.end.p0(i64 8, ptr nonnull %11) #5
  ret i32 %.035
}